target datalayout = "e-m:e-p270:32:32-p271:32:32-p272:64:64-i64:64-i128:128-f80:128-n8:16:32:64-S128"
target triple = "x86_64-pc-linux-gnu"

%struct.AVFormatContext = type { ptr, ptr, ptr, ptr, ptr, i32, i32, ptr, i32, ptr, i32, ptr, ptr, i64, i64, i64, i32, i32, i32, i64, i64, ptr, i32, i32, ptr, i32, i32, i32, i32, ptr, i64, i32, i32, %struct.AVIOInterruptCB, i32, i32, i32, i32, i64, i32, i32, i32, i32, i32, i32, i32, i32, i32, i32, i32, i32, i64, i32, i32, i32, i32, i32, ptr, ptr, ptr, ptr, i32, ptr, ptr, ptr, ptr, i32, ptr, ptr, i64, ptr, ptr, ptr, i64 }
%struct.AVIOInterruptCB = type { ptr, ptr }

@.str.17 = private unnamed_addr constant [32 x i8] c"too many index entries %u (%x)\0A\00", align 1
@.str.18 = private unnamed_addr constant [22 x i8] c"invalid index length\0A\00", align 1

; Function Attrs: nounwind uwtable
define internal void @gxf_read_index(ptr noundef %0, i32 noundef %1) #0 {
  %3 = alloca ptr, align 8
  %4 = alloca i32, align 4
  %5 = alloca ptr, align 8
  %6 = alloca ptr, align 8
  %7 = alloca i32, align 4
  %8 = alloca i32, align 4
  %9 = alloca i32, align 4
  %10 = alloca i32, align 4
  store ptr %0, ptr %3, align 8, !tbaa !13
  store i32 %1, ptr %4, align 4, !tbaa !34
  call void @llvm.lifetime.start.p0(i64 8, ptr %5) #10
  %11 = load ptr, ptr %3, align 8, !tbaa !13
  %12 = getelementptr inbounds nuw %struct.AVFormatContext, ptr %11, i32 0, i32 4
  %13 = load ptr, ptr %12, align 8, !tbaa !15
  store ptr %13, ptr %5, align 8, !tbaa !30
  call void @llvm.lifetime.start.p0(i64 8, ptr %6) #10
  call void @llvm.lifetime.start.p0(i64 4, ptr %7) #10
  call void @llvm.lifetime.start.p0(i64 4, ptr %8) #10
  call void @llvm.lifetime.start.p0(i64 4, ptr %9) #10
  %14 = load i32, ptr %4, align 4, !tbaa !34
  %15 = icmp slt i32 %14, 8
  br i1 %15, label %16, label %17

16:                                               ; preds = %2
  store i32 1, ptr %10, align 4
  br label %94

17:                                               ; preds = %2
  %18 = load ptr, ptr %5, align 8, !tbaa !30
  %19 = call i32 @avio_rl32(ptr noundef %18)
  store i32 %19, ptr %7, align 4, !tbaa !34
  %20 = load ptr, ptr %5, align 8, !tbaa !30
  %21 = call i32 @avio_rl32(ptr noundef %20)
  store i32 %21, ptr %8, align 4, !tbaa !34
  %22 = load i32, ptr %4, align 4, !tbaa !34
  %23 = sub nsw i32 %22, 8
  store i32 %23, ptr %4, align 4, !tbaa !34
  %24 = load ptr, ptr %3, align 8, !tbaa !13
  %25 = getelementptr inbounds nuw %struct.AVFormatContext, ptr %24, i32 0, i32 18
  %26 = load i32, ptr %25, align 8, !tbaa !111
  %27 = and i32 %26, 2
  %28 = icmp ne i32 %27, 0
  br i1 %28, label %34, label %29

29:                                               ; preds = %17
  %30 = load ptr, ptr %3, align 8, !tbaa !13
  %31 = getelementptr inbounds nuw %struct.AVFormatContext, ptr %30, i32 0, i32 7
  %32 = load ptr, ptr %31, align 8, !tbaa !41
  %33 = icmp ne ptr %32, null
  br i1 %33, label %39, label %34

34:                                               ; preds = %29, %17
  %35 = load ptr, ptr %5, align 8, !tbaa !30
  %36 = load i32, ptr %4, align 4, !tbaa !34
  %37 = sext i32 %36 to i64
  %38 = call i64 @avio_skip(ptr noundef %35, i64 noundef %37)
  store i32 1, ptr %10, align 4
  br label %94

39:                                               ; preds = %29
  %40 = load ptr, ptr %3, align 8, !tbaa !13
  %41 = getelementptr inbounds nuw %struct.AVFormatContext, ptr %40, i32 0, i32 7
  %42 = load ptr, ptr %41, align 8, !tbaa !41
  %43 = getelementptr inbounds ptr, ptr %42, i64 0
  %44 = load ptr, ptr %43, align 8, !tbaa !42
  store ptr %44, ptr %6, align 8, !tbaa !42
  %45 = load i32, ptr %8, align 4, !tbaa !34
  %46 = icmp ugt i32 %45, 1000
  br i1 %46, label %47, label %51

47:                                               ; preds = %39
  %48 = load ptr, ptr %3, align 8, !tbaa !13
  %49 = load i32, ptr %8, align 4, !tbaa !34
  %50 = load i32, ptr %8, align 4, !tbaa !34
  call void (ptr, i32, ptr, ...) @av_log(ptr noundef %48, i32 noundef 16, ptr noundef @.str.17, i32 noundef %49, i32 noundef %50)
  store i32 1000, ptr %8, align 4, !tbaa !34
  br label %51

51:                                               ; preds = %47, %39
  %52 = load i32, ptr %4, align 4, !tbaa !34
  %53 = load i32, ptr %8, align 4, !tbaa !34
  %54 = mul i32 4, %53
  %55 = icmp ult i32 %52, %54
  br i1 %55, label %56, label %62

56:                                               ; preds = %51
  %57 = load ptr, ptr %3, align 8, !tbaa !13
  call void (ptr, i32, ptr, ...) @av_log(ptr noundef %57, i32 noundef 16, ptr noundef @.str.18)
  %58 = load ptr, ptr %5, align 8, !tbaa !30
  %59 = load i32, ptr %4, align 4, !tbaa !34
  %60 = sext i32 %59 to i64
  %61 = call i64 @avio_skip(ptr noundef %58, i64 noundef %60)
  store i32 1, ptr %10, align 4
  br label %94

62:                                               ; preds = %51
  %63 = load i32, ptr %8, align 4, !tbaa !34
  %64 = mul i32 4, %63
  %65 = load i32, ptr %4, align 4, !tbaa !34
  %66 = sub i32 %65, %64
  store i32 %66, ptr %4, align 4, !tbaa !34
  %67 = load ptr, ptr %6, align 8, !tbaa !42
  %68 = call i32 @av_add_index_entry(ptr noundef %67, i64 noundef 0, i64 noundef 0, i32 noundef 0, i32 noundef 0, i32 noundef 0)
  store i32 0, ptr %9, align 4, !tbaa !34
  br label %69

69:                                               ; preds = %86, %62
  %70 = load i32, ptr %9, align 4, !tbaa !34
  %71 = load i32, ptr %8, align 4, !tbaa !34
  %72 = icmp ult i32 %70, %71
  br i1 %72, label %73, label %89

73:                                               ; preds = %69
  %74 = load ptr, ptr %6, align 8, !tbaa !42
  %75 = load ptr, ptr %5, align 8, !tbaa !30
  %76 = call i32 @avio_rl32(ptr noundef %75)
  %77 = zext i32 %76 to i64
  %78 = mul i64 %77, 1024
  %79 = load i32, ptr %9, align 4, !tbaa !34
  %80 = sext i32 %79 to i64
  %81 = load i32, ptr %7, align 4, !tbaa !34
  %82 = zext i32 %81 to i64
  %83 = mul i64 %80, %82
  %84 = add i64 %83, 1
  %85 = call i32 @av_add_index_entry(ptr noundef %74, i64 noundef %78, i64 noundef %84, i32 noundef 0, i32 noundef 0, i32 noundef 0)
  br label %86

86:                                               ; preds = %73
  %87 = load i32, ptr %9, align 4, !tbaa !34
  %88 = add nsw i32 %87, 1
  store i32 %88, ptr %9, align 4, !tbaa !34
  br label %69, !llvm.loop !112

89:                                               ; preds = %69
  %90 = load ptr, ptr %5, align 8, !tbaa !30
  %91 = load i32, ptr %4, align 4, !tbaa !34
  %92 = sext i32 %91 to i64
  %93 = call i64 @avio_skip(ptr noundef %90, i64 noundef %92)
  store i32 0, ptr %10, align 4
  br label %94

94:                                               ; preds = %89, %56, %34, %16
  call void @llvm.lifetime.end.p0(i64 4, ptr %9) #10
  call void @llvm.lifetime.end.p0(i64 4, ptr %8) #10
  call void @llvm.lifetime.end.p0(i64 4, ptr %7) #10
  call void @llvm.lifetime.end.p0(i64 8, ptr %6) #10
  call void @llvm.lifetime.end.p0(i64 8, ptr %5) #10
  %95 = load i32, ptr %10, align 4
  switch i32 %95, label %97 [
    i32 0, label %96
    i32 1, label %96
  ]

96:                                               ; preds = %94, %94
  ret void

97:                                               ; preds = %94
  unreachable
}