; Function Attrs: nounwind uwtable
define internal fastcc void @gxf_read_index(ptr noundef %0, i32 noundef %1) unnamed_addr #1 {
  %3 = getelementptr inbounds nuw i8, ptr %0, i64 32
  %4 = load ptr, ptr %3, align 8, !tbaa !11
  %5 = icmp slt i32 %1, 8
  br i1 %5, label %37, label %6

6:                                                ; preds = %2
  %7 = tail call i32 @avio_rl32(ptr noundef %4) #7
  %8 = tail call i32 @avio_rl32(ptr noundef %4) #7
  %9 = add nsw i32 %1, -8
  %10 = getelementptr inbounds nuw i8, ptr %0, i64 128
  %11 = load i32, ptr %10, align 8, !tbaa !85
  %12 = and i32 %11, 2
  %.not = icmp eq i32 %12, 0
  br i1 %.not, label %13, label %.sink.split

13:                                               ; preds = %6
  %14 = getelementptr inbounds nuw i8, ptr %0, i64 48
  %15 = load ptr, ptr %14, align 8, !tbaa !36
  %.not37 = icmp eq ptr %15, null
  br i1 %.not37, label %.sink.split, label %16

16:                                               ; preds = %13
  %17 = load ptr, ptr %15, align 8, !tbaa !37
  %18 = icmp ugt i32 %8, 1000
  br i1 %18, label %19, label %20

19:                                               ; preds = %16
  tail call void (ptr, i32, ptr, ...) @av_log(ptr noundef nonnull %0, i32 noundef 16, ptr noundef nonnull @.str.17, i32 noundef %8, i32 noundef %8) #7
  br label %20

20:                                               ; preds = %19, %16
  %.030 = phi i32 [ 1000, %19 ], [ %8, %16 ]
  %21 = shl nuw nsw i32 %.030, 2
  %22 = icmp samesign ult i32 %9, %21
  br i1 %22, label %23, label %24

23:                                               ; preds = %20
  tail call void (ptr, i32, ptr, ...) @av_log(ptr noundef nonnull %0, i32 noundef 16, ptr noundef nonnull @.str.18) #7
  br label %.sink.split

24:                                               ; preds = %20
  %25 = sub nuw nsw i32 %9, %21
  %26 = tail call i32 @av_add_index_entry(ptr noundef %17, i64 noundef 0, i64 noundef 0, i32 noundef 0, i32 noundef 0, i32 noundef 0) #7
  %.not39 = icmp eq i32 %.030, 0
  br i1 %.not39, label %.sink.split, label %.lr.ph

.lr.ph:                                           ; preds = %24
  %27 = zext i32 %7 to i64
  %wide.trip.count = zext nneg i32 %.030 to i64
  br label %28

28:                                               ; preds = %.lr.ph, %28
  %indvars.iv = phi i64 [ 0, %.lr.ph ], [ %indvars.iv.next, %28 ]
  %29 = tail call i32 @avio_rl32(ptr noundef %4) #7
  %30 = zext i32 %29 to i64
  %31 = shl nuw nsw i64 %30, 10
  %32 = mul nuw nsw i64 %indvars.iv, %27
  %33 = add nuw nsw i64 %32, 1
  %34 = tail call i32 @av_add_index_entry(ptr noundef %17, i64 noundef %31, i64 noundef %33, i32 noundef 0, i32 noundef 0, i32 noundef 0) #7
  %indvars.iv.next = add nuw nsw i64 %indvars.iv, 1
  %exitcond.not = icmp eq i64 %indvars.iv.next, %wide.trip.count
  br i1 %exitcond.not, label %.sink.split, label %28, !llvm.loop !86

.sink.split:                                      ; preds = %28, %24, %6, %13, %23
  %.sink41 = phi i32 [ %9, %23 ], [ %9, %13 ], [ %9, %6 ], [ %25, %24 ], [ %25, %28 ]
  %35 = zext nneg i32 %.sink41 to i64
  %36 = tail call i64 @avio_skip(ptr noundef %4, i64 noundef %35) #7
  br label %37

37:                                               ; preds = %.sink.split, %2
  ret void
}